; Function Attrs: mustprogress nofree norecurse nosync nounwind willreturn memory(argmem: readwrite) uwtable
define dso_local void @_ZN4llvm11MCSymbolELF13setVisibilityEj(ptr nocapture noundef nonnull align 8 dereferenceable(40) %0, i32 noundef %1) local_unnamed_addr #0 align 2 {
  %3 = getelementptr inbounds nuw i8, ptr %0, i64 8
  %4 = load i64, ptr %3, align 8
  %5 = lshr i64 %4, 32
  %6 = trunc nuw i64 %5 to i32
  %7 = and i32 %6, 65439
  %8 = shl i32 %1, 5
  %.masked = and i32 %8, 65504
  %9 = or i32 %7, %.masked
  %10 = zext nneg i32 %9 to i64
  %11 = shl nuw nsw i64 %10, 32
  %12 = and i64 %4, -281470681743361
  %13 = or disjoint i64 %11, %12
  store i64 %13, ptr %3, align 8
  ret void
}